target datalayout = "e-m:e-p270:32:32-p271:32:32-p272:64:64-i64:64-i128:128-f80:128-n8:16:32:64-S128"
target triple = "x86_64-pc-linux-gnu"

%"class.icu_77::Package" = type <{ [64 x i8], [64 x i8], ptr, [1024 x i8], i32, i32, i8, i8, i8, i8, i32, i32, [4 x i8], ptr, i32, i32, [100000 x i8], [100000 x i8], i32, [4 x i8], ptr, ptr, i32, i32, i32, i8, [3 x i8] }>
%"struct.icu_77::Item" = type { ptr, ptr, i32, i8, i8 }

; Function Attrs: mustprogress uwtable
define void @_ZN6icu_777Package16enumDependenciesEPvPFvS1_PKcS3_E(ptr noundef nonnull align 8 dereferenceable(201237) %0, ptr noundef %1, ptr noundef %2) #0 align 2 {
  %4 = alloca ptr, align 8
  %5 = alloca ptr, align 8
  %6 = alloca ptr, align 8
  %7 = alloca i32, align 4
  store ptr %0, ptr %4, align 8, !tbaa !26
  store ptr %1, ptr %5, align 8, !tbaa !12
  store ptr %2, ptr %6, align 8, !tbaa !12
  %8 = load ptr, ptr %4, align 8
  call void @llvm.lifetime.start.p0(i64 4, ptr %7) #13
  store i32 0, ptr %7, align 4, !tbaa !8
  br label %9

9:                                                ; preds = %22, %3
  %10 = load i32, ptr %7, align 4, !tbaa !8
  %11 = getelementptr inbounds nuw %"class.icu_77::Package", ptr %8, i32 0, i32 10
  %12 = load i32, ptr %11, align 4, !tbaa !37
  %13 = icmp slt i32 %10, %12
  br i1 %13, label %14, label %25

14:                                               ; preds = %9
  %15 = getelementptr inbounds nuw %"class.icu_77::Package", ptr %8, i32 0, i32 13
  %16 = load ptr, ptr %15, align 8, !tbaa !39
  %17 = load i32, ptr %7, align 4, !tbaa !8
  %18 = sext i32 %17 to i64
  %19 = getelementptr inbounds %"struct.icu_77::Item", ptr %16, i64 %18
  %20 = load ptr, ptr %5, align 8, !tbaa !12
  %21 = load ptr, ptr %6, align 8, !tbaa !12
  call void @_ZN6icu_777Package16enumDependenciesEPNS_4ItemEPvPFvS3_PKcS5_E(ptr noundef nonnull align 8 dereferenceable(201237) %8, ptr noundef %19, ptr noundef %20, ptr noundef %21)
  br label %22

22:                                               ; preds = %14
  %23 = load i32, ptr %7, align 4, !tbaa !8
  %24 = add nsw i32 %23, 1
  store i32 %24, ptr %7, align 4, !tbaa !8
  br label %9, !llvm.loop !92

25:                                               ; preds = %9
  call void @llvm.lifetime.end.p0(i64 4, ptr %7) #13
  ret void
}

; Function Attrs: mustprogress uwtable
define noundef signext i8 @_ZN6icu_777Package17checkDependenciesEv(ptr noundef nonnull align 8 dereferenceable(201237) %0) #0 align 2 {
  %2 = alloca ptr, align 8
  store ptr %0, ptr %2, align 8, !tbaa !26
  %3 = load ptr, ptr %2, align 8
  %4 = getelementptr inbounds nuw %"class.icu_77::Package", ptr %3, i32 0, i32 25
  store i8 0, ptr %4, align 4, !tbaa !91
  call void @_ZN6icu_777Package16enumDependenciesEPvPFvS1_PKcS3_E(ptr noundef nonnull align 8 dereferenceable(201237) %3, ptr noundef %3, ptr noundef @_ZN6icu_777Package15checkDependencyEPvPKcS3_)
  %5 = getelementptr inbounds nuw %"class.icu_77::Package", ptr %3, i32 0, i32 25
  %6 = load i8, ptr %5, align 4, !tbaa !91
  %7 = icmp ne i8 %6, 0
  %8 = xor i1 %7, true
  %9 = zext i1 %8 to i8
  ret i8 %9
}