; Function Attrs: mustprogress uwtable
define noundef signext range(i8 0, 2) i8 @_ZN6icu_777Package17checkDependenciesEv(ptr noundef nonnull align 8 dereferenceable(201237) initializes((201236, 201237)) %0) local_unnamed_addr #13 align 2 {
  %2 = getelementptr inbounds nuw i8, ptr %0, i64 201236
  store i8 0, ptr %2, align 4, !tbaa !80
  %3 = getelementptr inbounds nuw i8, ptr %0, i64 1172
  %4 = load i32, ptr %3, align 4, !tbaa !29
  %5 = icmp sgt i32 %4, 0
  br i1 %5, label %.lr.ph.i, label %_ZN6icu_777Package16enumDependenciesEPvPFvS1_PKcS3_E.exit

.lr.ph.i:                                         ; preds = %1
  %6 = getelementptr inbounds nuw i8, ptr %0, i64 1184
  br label %7

7:                                                ; preds = %7, %.lr.ph.i
  %indvars.iv.i = phi i64 [ 0, %.lr.ph.i ], [ %indvars.iv.next.i, %7 ]
  %8 = load ptr, ptr %6, align 8, !tbaa !30
  %9 = getelementptr inbounds nuw %"struct.icu_77::Item", ptr %8, i64 %indvars.iv.i
  tail call void @_ZN6icu_777Package16enumDependenciesEPNS_4ItemEPvPFvS3_PKcS5_E(ptr noundef nonnull align 8 dereferenceable(201237) %0, ptr noundef %9, ptr noundef nonnull %0, ptr noundef nonnull @_ZN6icu_777Package15checkDependencyEPvPKcS3_)
  %indvars.iv.next.i = add nuw nsw i64 %indvars.iv.i, 1
  %10 = load i32, ptr %3, align 4, !tbaa !29
  %11 = sext i32 %10 to i64
  %12 = icmp slt i64 %indvars.iv.next.i, %11
  br i1 %12, label %7, label %_ZN6icu_777Package16enumDependenciesEPvPFvS1_PKcS3_E.exit.loopexit, !llvm.loop !81

_ZN6icu_777Package16enumDependenciesEPvPFvS1_PKcS3_E.exit.loopexit: ; preds = %7
  %.pre = load i8, ptr %2, align 4, !tbaa !80
  %13 = icmp eq i8 %.pre, 0
  %14 = zext i1 %13 to i8
  br label %_ZN6icu_777Package16enumDependenciesEPvPFvS1_PKcS3_E.exit

_ZN6icu_777Package16enumDependenciesEPvPFvS1_PKcS3_E.exit: ; preds = %_ZN6icu_777Package16enumDependenciesEPvPFvS1_PKcS3_E.exit.loopexit, %1
  %.not = phi i8 [ %14, %_ZN6icu_777Package16enumDependenciesEPvPFvS1_PKcS3_E.exit.loopexit ], [ 1, %1 ]
  ret i8 %.not
}